target datalayout = "e-m:e-p270:32:32-p271:32:32-p272:64:64-i64:64-i128:128-f80:128-n8:16:32:64-S128"
target triple = "x86_64-pc-linux-gnu"

%struct._object = type { %union.anon, ptr }
%union.anon = type { i64 }
%struct.XxoObject = type { %struct._object, ptr, [10 x i8], i64 }

; Function Attrs: inlinehint nounwind uwtable
define internal ptr @_Py_TYPE(ptr noundef %0) #4 {
  %2 = alloca ptr, align 8
  store ptr %0, ptr %2, align 8, !tbaa !3
  %3 = load ptr, ptr %2, align 8, !tbaa !3
  %4 = getelementptr inbounds nuw %struct._object, ptr %3, i32 0, i32 1
  %5 = load ptr, ptr %4, align 8, !tbaa !24
  ret ptr %5
}

; Function Attrs: nounwind uwtable
define internal i32 @Xxo_traverse(ptr noundef %0, ptr noundef %1, ptr noundef %2) #0 {
  %4 = alloca i32, align 4
  %5 = alloca ptr, align 8
  %6 = alloca ptr, align 8
  %7 = alloca ptr, align 8
  %8 = alloca i32, align 4
  %9 = alloca i32, align 4
  %10 = alloca ptr, align 8
  %11 = alloca i32, align 4
  store ptr %0, ptr %5, align 8, !tbaa !3
  store ptr %1, ptr %6, align 8, !tbaa !8
  store ptr %2, ptr %7, align 8, !tbaa !8
  br label %12

12:                                               ; preds = %3
  %13 = load ptr, ptr %5, align 8, !tbaa !3
  %14 = call ptr @_Py_TYPE(ptr noundef %13)
  %15 = icmp ne ptr %14, null
  br i1 %15, label %16, label %30

16:                                               ; preds = %12
  call void @llvm.lifetime.start.p0(i64 4, ptr %8) #6
  %17 = load ptr, ptr %6, align 8, !tbaa !8
  %18 = load ptr, ptr %5, align 8, !tbaa !3
  %19 = call ptr @_Py_TYPE(ptr noundef %18)
  %20 = load ptr, ptr %7, align 8, !tbaa !8
  %21 = call i32 %17(ptr noundef %19, ptr noundef %20)
  store i32 %21, ptr %8, align 4, !tbaa !11
  %22 = load i32, ptr %8, align 4, !tbaa !11
  %23 = icmp ne i32 %22, 0
  br i1 %23, label %24, label %26

24:                                               ; preds = %16
  %25 = load i32, ptr %8, align 4, !tbaa !11
  store i32 %25, ptr %4, align 4
  store i32 1, ptr %9, align 4
  br label %27

26:                                               ; preds = %16
  store i32 0, ptr %9, align 4
  br label %27

27:                                               ; preds = %26, %24
  call void @llvm.lifetime.end.p0(i64 4, ptr %8) #6
  %28 = load i32, ptr %9, align 4
  switch i32 %28, label %59 [
    i32 0, label %29
    i32 1, label %57
  ]

29:                                               ; preds = %27
  br label %30

30:                                               ; preds = %29, %12
  br label %31

31:                                               ; preds = %30
  call void @llvm.lifetime.start.p0(i64 8, ptr %10) #6
  %32 = load ptr, ptr %5, align 8, !tbaa !3
  store ptr %32, ptr %10, align 8, !tbaa !8
  br label %33

33:                                               ; preds = %31
  %34 = load ptr, ptr %10, align 8, !tbaa !8
  %35 = getelementptr inbounds nuw %struct.XxoObject, ptr %34, i32 0, i32 1
  %36 = load ptr, ptr %35, align 8, !tbaa !18
  %37 = icmp ne ptr %36, null
  br i1 %37, label %38, label %53

38:                                               ; preds = %33
  call void @llvm.lifetime.start.p0(i64 4, ptr %11) #6
  %39 = load ptr, ptr %6, align 8, !tbaa !8
  %40 = load ptr, ptr %10, align 8, !tbaa !8
  %41 = getelementptr inbounds nuw %struct.XxoObject, ptr %40, i32 0, i32 1
  %42 = load ptr, ptr %41, align 8, !tbaa !18
  %43 = load ptr, ptr %7, align 8, !tbaa !8
  %44 = call i32 %39(ptr noundef %42, ptr noundef %43)
  store i32 %44, ptr %11, align 4, !tbaa !11
  %45 = load i32, ptr %11, align 4, !tbaa !11
  %46 = icmp ne i32 %45, 0
  br i1 %46, label %47, label %49

47:                                               ; preds = %38
  %48 = load i32, ptr %11, align 4, !tbaa !11
  store i32 %48, ptr %4, align 4
  store i32 1, ptr %9, align 4
  br label %50

49:                                               ; preds = %38
  store i32 0, ptr %9, align 4
  br label %50

50:                                               ; preds = %49, %47
  call void @llvm.lifetime.end.p0(i64 4, ptr %11) #6
  %51 = load i32, ptr %9, align 4
  switch i32 %51, label %56 [
    i32 0, label %52
  ]

52:                                               ; preds = %50
  br label %53

53:                                               ; preds = %52, %33
  br label %54

54:                                               ; preds = %53
  br label %55

55:                                               ; preds = %54
  store i32 0, ptr %4, align 4
  store i32 1, ptr %9, align 4
  br label %56

56:                                               ; preds = %55, %50
  call void @llvm.lifetime.end.p0(i64 8, ptr %10) #6
  br label %57

57:                                               ; preds = %56, %27
  %58 = load i32, ptr %4, align 4
  ret i32 %58

59:                                               ; preds = %27
  unreachable
}